target datalayout = "e-m:e-p270:32:32-p271:32:32-p272:64:64-i64:64-i128:128-f80:128-n8:16:32:64-S128"
target triple = "x86_64-pc-linux-gnu"

%"class.icu_77::TimeUnitFormat" = type <{ %"class.icu_77::MeasureFormat", [7 x ptr], i32, [4 x i8] }>
%"class.icu_77::MeasureFormat" = type { %"class.icu_77::Format", ptr, ptr, ptr, i32, ptr }
%"class.icu_77::Format" = type { %"class.icu_77::UObject", ptr, ptr }
%"class.icu_77::UObject" = type { ptr }

; Function Attrs: inlinehint mustprogress nounwind uwtable
define internal noundef signext i8 @_ZL9U_FAILURE10UErrorCode(i32 noundef %0) #2 {
  %2 = alloca i32, align 4
  store i32 %0, ptr %2, align 4, !tbaa !15
  %3 = load i32, ptr %2, align 4, !tbaa !15
  %4 = icmp sgt i32 %3, 0
  %5 = zext i1 %4 to i8
  ret i8 %5
}

; Function Attrs: mustprogress uwtable
define void @_ZN6icu_7714TimeUnitFormat6createE20UTimeUnitFormatStyleR10UErrorCode(ptr noundef nonnull align 8 dereferenceable(124) %0, i32 noundef %1, ptr noundef nonnull align 4 dereferenceable(4) %2) #1 align 2 {
  %4 = alloca ptr, align 8
  %5 = alloca i32, align 4
  %6 = alloca ptr, align 8
  %7 = alloca i32, align 4
  store ptr %0, ptr %4, align 8, !tbaa !23
  store i32 %1, ptr %5, align 4, !tbaa !27
  store ptr %2, ptr %6, align 8, !tbaa !22
  %8 = load ptr, ptr %4, align 8
  call void @llvm.lifetime.start.p0(i64 4, ptr %7) #11
  store i32 0, ptr %7, align 4, !tbaa !29
  br label %9

9:                                                ; preds = %18, %3
  %10 = load i32, ptr %7, align 4, !tbaa !29
  %11 = icmp slt i32 %10, 7
  br i1 %11, label %13, label %12

12:                                               ; preds = %9
  call void @llvm.lifetime.end.p0(i64 4, ptr %7) #11
  br label %21

13:                                               ; preds = %9
  %14 = getelementptr inbounds nuw %"class.icu_77::TimeUnitFormat", ptr %8, i32 0, i32 1
  %15 = load i32, ptr %7, align 4, !tbaa !29
  %16 = zext i32 %15 to i64
  %17 = getelementptr inbounds nuw [7 x ptr], ptr %14, i64 0, i64 %16
  store ptr null, ptr %17, align 8, !tbaa !31
  br label %18

18:                                               ; preds = %13
  %19 = load i32, ptr %7, align 4, !tbaa !29
  %20 = add nsw i32 %19, 1
  store i32 %20, ptr %7, align 4, !tbaa !29
  br label %9, !llvm.loop !33

21:                                               ; preds = %12
  %22 = load ptr, ptr %6, align 8, !tbaa !22
  %23 = load i32, ptr %22, align 4, !tbaa !15
  %24 = call noundef signext i8 @_ZL9U_FAILURE10UErrorCode(i32 noundef %23)
  %25 = icmp ne i8 %24, 0
  br i1 %25, label %26, label %27

26:                                               ; preds = %21
  br label %39

27:                                               ; preds = %21
  %28 = load i32, ptr %5, align 4, !tbaa !27
  %29 = icmp slt i32 %28, 0
  br i1 %29, label %33, label %30

30:                                               ; preds = %27
  %31 = load i32, ptr %5, align 4, !tbaa !27
  %32 = icmp sge i32 %31, 2
  br i1 %32, label %33, label %35

33:                                               ; preds = %30, %27
  %34 = load ptr, ptr %6, align 8, !tbaa !22
  store i32 1, ptr %34, align 4, !tbaa !15
  br label %39

35:                                               ; preds = %30
  %36 = load i32, ptr %5, align 4, !tbaa !27
  %37 = getelementptr inbounds nuw %"class.icu_77::TimeUnitFormat", ptr %8, i32 0, i32 2
  store i32 %36, ptr %37, align 8, !tbaa !35
  %38 = load ptr, ptr %6, align 8, !tbaa !22
  call void @_ZN6icu_7714TimeUnitFormat5setupER10UErrorCode(ptr noundef nonnull align 8 dereferenceable(124) %8, ptr noundef nonnull align 4 dereferenceable(4) %38)
  br label %39

39:                                               ; preds = %35, %33, %26
  ret void
}

; Function Attrs: mustprogress uwtable
define void @_ZN6icu_7714TimeUnitFormatC2ERKNS_6LocaleE20UTimeUnitFormatStyleR10UErrorCode(ptr noundef nonnull align 8 dereferenceable(124) %0, ptr noundef nonnull align 8 dereferenceable(217) %1, i32 noundef %2, ptr noundef nonnull align 4 dereferenceable(4) %3) unnamed_addr #1 align 2 personality ptr @__gxx_personality_v0 {
  %5 = alloca ptr, align 8
  %6 = alloca ptr, align 8
  %7 = alloca i32, align 4
  %8 = alloca ptr, align 8
  %9 = alloca ptr, align 8
  %10 = alloca i32, align 4
  store ptr %0, ptr %5, align 8, !tbaa !23
  store ptr %1, ptr %6, align 8, !tbaa !46
  store i32 %2, ptr %7, align 4, !tbaa !27
  store ptr %3, ptr %8, align 8, !tbaa !22
  %11 = load ptr, ptr %5, align 8
  call void @_ZN6icu_7713MeasureFormatC2Ev(ptr noundef nonnull align 8 dereferenceable(64) %11)
  store ptr getelementptr inbounds inrange(-16, 64) ({ [10 x ptr] }, ptr @_ZTVN6icu_7714TimeUnitFormatE, i32 0, i32 0, i32 2), ptr %11, align 8, !tbaa !25
  %12 = load i32, ptr %7, align 4, !tbaa !27
  switch i32 %12, label %25 [
    i32 0, label %13
    i32 1, label %21
  ]

13:                                               ; preds = %4
  %14 = load ptr, ptr %6, align 8, !tbaa !46
  %15 = load ptr, ptr %8, align 8, !tbaa !22
  invoke void @_ZN6icu_7713MeasureFormat17initMeasureFormatERKNS_6LocaleE19UMeasureFormatWidthPNS_12NumberFormatER10UErrorCode(ptr noundef nonnull align 8 dereferenceable(64) %11, ptr noundef nonnull align 8 dereferenceable(217) %14, i32 noundef 0, ptr noundef null, ptr noundef nonnull align 4 dereferenceable(4) %15)
          to label %16 unwind label %17

16:                                               ; preds = %13
  br label %29

17:                                               ; preds = %29, %25, %21, %13
  %18 = landingpad { ptr, i32 }
          cleanup
  %19 = extractvalue { ptr, i32 } %18, 0
  store ptr %19, ptr %9, align 8
  %20 = extractvalue { ptr, i32 } %18, 1
  store i32 %20, ptr %10, align 4
  call void @_ZN6icu_7713MeasureFormatD2Ev(ptr noundef nonnull align 8 dereferenceable(64) %11) #11
  br label %33

21:                                               ; preds = %4
  %22 = load ptr, ptr %6, align 8, !tbaa !46
  %23 = load ptr, ptr %8, align 8, !tbaa !22
  invoke void @_ZN6icu_7713MeasureFormat17initMeasureFormatERKNS_6LocaleE19UMeasureFormatWidthPNS_12NumberFormatER10UErrorCode(ptr noundef nonnull align 8 dereferenceable(64) %11, ptr noundef nonnull align 8 dereferenceable(217) %22, i32 noundef 1, ptr noundef null, ptr noundef nonnull align 4 dereferenceable(4) %23)
          to label %24 unwind label %17

24:                                               ; preds = %21
  br label %29

25:                                               ; preds = %4
  %26 = load ptr, ptr %6, align 8, !tbaa !46
  %27 = load ptr, ptr %8, align 8, !tbaa !22
  invoke void @_ZN6icu_7713MeasureFormat17initMeasureFormatERKNS_6LocaleE19UMeasureFormatWidthPNS_12NumberFormatER10UErrorCode(ptr noundef nonnull align 8 dereferenceable(64) %11, ptr noundef nonnull align 8 dereferenceable(217) %26, i32 noundef 0, ptr noundef null, ptr noundef nonnull align 4 dereferenceable(4) %27)
          to label %28 unwind label %17

28:                                               ; preds = %25
  br label %29

29:                                               ; preds = %28, %24, %16
  %30 = load i32, ptr %7, align 4, !tbaa !27
  %31 = load ptr, ptr %8, align 8, !tbaa !22
  invoke void @_ZN6icu_7714TimeUnitFormat6createE20UTimeUnitFormatStyleR10UErrorCode(ptr noundef nonnull align 8 dereferenceable(124) %11, i32 noundef %30, ptr noundef nonnull align 4 dereferenceable(4) %31)
          to label %32 unwind label %17

32:                                               ; preds = %29
  ret void

33:                                               ; preds = %17
  %34 = load ptr, ptr %9, align 8
  %35 = load i32, ptr %10, align 4
  %36 = insertvalue { ptr, i32 } poison, ptr %34, 0
  %37 = insertvalue { ptr, i32 } %36, i32 %35, 1
  resume { ptr, i32 } %37
}