; Function Attrs: mustprogress uwtable
define void @_ZN6icu_7714TimeUnitFormatC2ERKNS_6LocaleE20UTimeUnitFormatStyleR10UErrorCode(ptr noundef nonnull align 8 dereferenceable(124) %0, ptr noundef nonnull align 8 dereferenceable(217) %1, i32 noundef %2, ptr noundef nonnull align 4 dereferenceable(4) %3) unnamed_addr #1 align 2 personality ptr @__gxx_personality_v0 {
.invoke:
  tail call void @_ZN6icu_7713MeasureFormatC2Ev(ptr noundef nonnull align 8 dereferenceable(64) %0)
  store ptr getelementptr inbounds nuw inrange(-16, 64) (i8, ptr @_ZTVN6icu_7714TimeUnitFormatE, i64 16), ptr %0, align 8, !tbaa !15
  %switch.selectcmp = icmp eq i32 %2, 1
  %switch.select = zext i1 %switch.selectcmp to i32
  invoke void @_ZN6icu_7713MeasureFormat17initMeasureFormatERKNS_6LocaleE19UMeasureFormatWidthPNS_12NumberFormatER10UErrorCode(ptr noundef nonnull align 8 dereferenceable(64) %0, ptr noundef nonnull align 8 dereferenceable(217) %1, i32 noundef %switch.select, ptr noundef null, ptr noundef nonnull align 4 dereferenceable(4) %3)
          to label %6 unwind label %4

4:                                                ; preds = %.invoke, %12
  %5 = landingpad { ptr, i32 }
          cleanup
  tail call void @_ZN6icu_7713MeasureFormatD2Ev(ptr noundef nonnull align 8 dereferenceable(64) %0) #16
  resume { ptr, i32 } %5

6:                                                ; preds = %.invoke
  %7 = getelementptr inbounds nuw i8, ptr %0, i64 64
  tail call void @llvm.memset.p0.i64(ptr noundef nonnull align 8 dereferenceable(56) %7, i8 0, i64 56, i1 false), !tbaa !17
  %8 = load i32, ptr %3, align 4, !tbaa !13
  %9 = icmp slt i32 %8, 1
  br i1 %9, label %10, label %_ZN6icu_7714TimeUnitFormat6createE20UTimeUnitFormatStyleR10UErrorCode.exit

10:                                               ; preds = %6
  %or.cond.i = icmp ugt i32 %2, 1
  br i1 %or.cond.i, label %11, label %12

11:                                               ; preds = %10
  store i32 1, ptr %3, align 4, !tbaa !13
  br label %_ZN6icu_7714TimeUnitFormat6createE20UTimeUnitFormatStyleR10UErrorCode.exit

12:                                               ; preds = %10
  %13 = getelementptr inbounds nuw i8, ptr %0, i64 120
  store i32 %2, ptr %13, align 8, !tbaa !19
  invoke void @_ZN6icu_7714TimeUnitFormat5setupER10UErrorCode(ptr noundef nonnull align 8 dereferenceable(124) %0, ptr noundef nonnull align 4 dereferenceable(4) %3)
          to label %_ZN6icu_7714TimeUnitFormat6createE20UTimeUnitFormatStyleR10UErrorCode.exit unwind label %4

_ZN6icu_7714TimeUnitFormat6createE20UTimeUnitFormatStyleR10UErrorCode.exit: ; preds = %11, %6, %12
  ret void
}